; Function Attrs: mustprogress nounwind uwtable
define dso_local noundef zeroext i1 @_ZN4llvm24SpeculativeExecutionPass7runImplERNS_8FunctionEPNS_19TargetTransformInfoE(ptr nocapture noundef nonnull align 8 dereferenceable(16) %0, ptr noundef nonnull align 8 dereferenceable(136) %1, ptr noundef %2) local_unnamed_addr #0 align 2 {
  %4 = load i8, ptr %0, align 8
  %5 = trunc i8 %4 to i1
  br i1 %5, label %6, label %8

6:                                                ; preds = %3
  %7 = tail call noundef zeroext i1 @_ZNK4llvm19TargetTransformInfo19hasBranchDivergenceEPKNS_8FunctionE(ptr noundef nonnull align 8 dereferenceable(8) %2, ptr noundef nonnull %1) #18
  br i1 %7, label %8, label %.loopexit

8:                                                ; preds = %6, %3
  %9 = getelementptr inbounds nuw i8, ptr %0, i64 8
  store ptr %2, ptr %9, align 8
  %10 = getelementptr inbounds i8, ptr %1, i64 80
  %11 = getelementptr inbounds nuw i8, ptr %1, i64 72
  %.sroa.011.014 = load ptr, ptr %10, align 8
  %.not15 = icmp eq ptr %.sroa.011.014, %11
  br i1 %.not15, label %.loopexit, label %.lr.ph

.lr.ph:                                           ; preds = %8, %.lr.ph
  %.sroa.011.017 = phi ptr [ %.sroa.011.0, %.lr.ph ], [ %.sroa.011.014, %8 ]
  %.01016 = phi i1 [ %16, %.lr.ph ], [ false, %8 ]
  %12 = icmp eq ptr %.sroa.011.017, null
  %13 = getelementptr inbounds i8, ptr %.sroa.011.017, i64 -24
  %14 = select i1 %12, ptr null, ptr %13
  %15 = tail call noundef zeroext i1 @_ZN4llvm24SpeculativeExecutionPass15runOnBasicBlockERNS_10BasicBlockE(ptr noundef nonnull align 8 dereferenceable(16) %0, ptr noundef nonnull align 8 dereferenceable(80) %14)
  %16 = or i1 %.01016, %15
  %17 = getelementptr inbounds nuw i8, ptr %.sroa.011.017, i64 8
  %.sroa.011.0 = load ptr, ptr %17, align 8
  %.not = icmp eq ptr %.sroa.011.0, %11
  br i1 %.not, label %.loopexit, label %.lr.ph

.loopexit:                                        ; preds = %.lr.ph, %8, %6
  %.0 = phi i1 [ false, %6 ], [ false, %8 ], [ %16, %.lr.ph ]
  ret i1 %.0
}